; ModuleID = 'source-C-CXX/11/213.c'
source_filename = "source-C-CXX/11/213.c"
target datalayout = "e-m:e-p270:32:32-p271:32:32-p272:64:64-i64:64-f80:128-n8:16:32:64-S128"
target triple = "x86_64-pc-linux-gnu"

@.str = private unnamed_addr constant [3 x i8] c"%d\00", align 1
@.str.1 = private unnamed_addr constant [4 x i8] c"%d\0A\00", align 1

; Function Attrs: nofree nounwind sspstrong uwtable
define dso_local i32 @main() local_unnamed_addr #0 {
  %1 = alloca [100 x [16 x i32]], align 16
  %2 = alloca [100 x i32], align 16
  %3 = bitcast [100 x [16 x i32]]* %1 to i8*
  call void @llvm.lifetime.start.p0i8(i64 6400, i8* nonnull %3) #4
  %4 = bitcast [100 x i32]* %2 to i8*
  call void @llvm.lifetime.start.p0i8(i64 400, i8* nonnull %4) #4
  call void @llvm.memset.p0i8.i64(i8* noundef nonnull align 16 dereferenceable(400) %4, i8 0, i64 400, i1 false)
  br label %5

5:                                                ; preds = %18, %0
  %6 = phi i64 [ %19, %18 ], [ 0, %0 ]
  br label %7

7:                                                ; preds = %16, %5
  %8 = phi i64 [ %17, %16 ], [ 0, %5 ]
  %9 = getelementptr inbounds [100 x [16 x i32]], [100 x [16 x i32]]* %1, i64 0, i64 %6, i64 %8
  %10 = call i32 (i8*, ...) @__isoc99_scanf(i8* getelementptr inbounds ([3 x i8], [3 x i8]* @.str, i64 0, i64 0), i32* nonnull %9)
  %11 = load i32, i32* %9, align 4, !tbaa !5
  switch i32 %11, label %16 [
    i32 0, label %18
    i32 -1, label %12
  ]

12:                                               ; preds = %7
  %13 = getelementptr inbounds [100 x [16 x i32]], [100 x [16 x i32]]* %1, i64 0, i64 0, i64 0
  %14 = load i32, i32* %13, align 16, !tbaa !5
  %15 = icmp eq i32 %14, -1
  br i1 %15, label %53, label %20

16:                                               ; preds = %7
  %17 = add nuw i64 %8, 1
  br label %7

18:                                               ; preds = %7
  %19 = add nuw i64 %6, 1
  br label %5

20:                                               ; preds = %12, %46
  %21 = phi i32 [ %51, %46 ], [ %14, %12 ]
  %22 = phi i64 [ %49, %46 ], [ 0, %12 ]
  %23 = getelementptr inbounds [100 x i32], [100 x i32]* %2, i64 0, i64 %22
  %24 = icmp eq i32 %21, 0
  br i1 %24, label %46, label %25

25:                                               ; preds = %20, %41
  %26 = phi i64 [ %42, %41 ], [ 0, %20 ]
  %27 = phi i32 [ %44, %41 ], [ %21, %20 ]
  br label %28

28:                                               ; preds = %25, %36
  %29 = phi i64 [ 0, %25 ], [ %37, %36 ]
  %30 = phi i32 [ %21, %25 ], [ %39, %36 ]
  %31 = shl nsw i32 %30, 1
  %32 = icmp eq i32 %27, %31
  br i1 %32, label %33, label %36

33:                                               ; preds = %28
  %34 = load i32, i32* %23, align 4, !tbaa !5
  %35 = add nsw i32 %34, 1
  store i32 %35, i32* %23, align 4, !tbaa !5
  br label %36

36:                                               ; preds = %28, %33
  %37 = add nuw i64 %29, 1
  %38 = getelementptr inbounds [100 x [16 x i32]], [100 x [16 x i32]]* %1, i64 0, i64 %22, i64 %37
  %39 = load i32, i32* %38, align 4, !tbaa !5
  %40 = icmp eq i32 %39, 0
  br i1 %40, label %41, label %28, !llvm.loop !9

41:                                               ; preds = %36
  %42 = add nuw i64 %26, 1
  %43 = getelementptr inbounds [100 x [16 x i32]], [100 x [16 x i32]]* %1, i64 0, i64 %22, i64 %42
  %44 = load i32, i32* %43, align 4, !tbaa !5
  %45 = icmp eq i32 %44, 0
  br i1 %45, label %46, label %25, !llvm.loop !11

46:                                               ; preds = %41, %20
  %47 = load i32, i32* %23, align 4, !tbaa !5
  %48 = call i32 (i8*, ...) @printf(i8* nonnull dereferenceable(1) getelementptr inbounds ([4 x i8], [4 x i8]* @.str.1, i64 0, i64 0), i32 %47)
  %49 = add nuw i64 %22, 1
  %50 = getelementptr inbounds [100 x [16 x i32]], [100 x [16 x i32]]* %1, i64 0, i64 %49, i64 0
  %51 = load i32, i32* %50, align 16, !tbaa !5
  %52 = icmp eq i32 %51, -1
  br i1 %52, label %53, label %20, !llvm.loop !12

53:                                               ; preds = %46, %12
  call void @llvm.lifetime.end.p0i8(i64 400, i8* nonnull %4) #4
  call void @llvm.lifetime.end.p0i8(i64 6400, i8* nonnull %3) #4
  ret i32 0
}

; Function Attrs: argmemonly mustprogress nofree nosync nounwind willreturn
declare void @llvm.lifetime.start.p0i8(i64 immarg, i8* nocapture) #1

; Function Attrs: argmemonly mustprogress nofree nounwind willreturn writeonly
declare void @llvm.memset.p0i8.i64(i8* nocapture writeonly, i8, i64, i1 immarg) #2

; Function Attrs: nofree nounwind
declare noundef i32 @__isoc99_scanf(i8* nocapture noundef readonly, ...) local_unnamed_addr #3

; Function Attrs: nofree nounwind
declare noundef i32 @printf(i8* nocapture noundef readonly, ...) local_unnamed_addr #3

; Function Attrs: argmemonly mustprogress nofree nosync nounwind willreturn
declare void @llvm.lifetime.end.p0i8(i64 immarg, i8* nocapture) #1


!llvm.module.flags = !{!0, !1, !2, !3}
!llvm.ident = !{!4}

!0 = !{i32 1, !"wchar_size", i32 4}
!1 = !{i32 7, !"PIC Level", i32 2}
!2 = !{i32 7, !"PIE Level", i32 2}
!3 = !{i32 7, !"uwtable", i32 1}
!4 = !{!"clang version 13.0.0"}
!5 = !{!6, !6, i64 0}
!6 = !{!"int", !7, i64 0}
!7 = !{!"omnipotent char", !8, i64 0}
!8 = !{!"Simple C/C++ TBAA"}
!9 = distinct !{!9, !10}
!10 = !{!"llvm.loop.mustprogress"}
!11 = distinct !{!11, !10}
!12 = distinct !{!12, !10}
